target datalayout = "e-m:e-p270:32:32-p271:32:32-p272:64:64-i64:64-i128:128-f80:128-n8:16:32:64-S128"
target triple = "x86_64-pc-linux-gnu"

%struct.PageHeaderData = type { %struct.PageXLogRecPtr, i16, i16, i16, i16, i16, i16, i32, [0 x %struct.ItemIdData] }
%struct.PageXLogRecPtr = type { i32, i32 }
%struct.ItemIdData = type { i32 }
%struct.SpGistPageOpaqueData = type { i16, i16, i16, i16 }

@.str.1 = private unnamed_addr constant [14 x i8] c"spgdoinsert.c\00", align 1
@.str.2 = private unnamed_addr constant [51 x i8] c"failed to add item of size %u to SPGiST index page\00", align 1
@__func__.spgPageIndexMultiDelete = private unnamed_addr constant [24 x i8] c"spgPageIndexMultiDelete\00", align 1

; Function Attrs: inlinehint nounwind uwtable
define internal void @PageValidateSpecialPointer(ptr noundef %0) #2 {
  %2 = alloca ptr, align 8
  store ptr %0, ptr %2, align 8
  ret void
}

; Function Attrs: nounwind uwtable
define dso_local void @spgPageIndexMultiDelete(ptr noundef %0, ptr noundef %1, ptr noundef %2, i32 noundef %3, i32 noundef %4, i32 noundef %5, i32 noundef %6, i16 noundef zeroext %7) #0 {
  %9 = alloca ptr, align 8
  %10 = alloca ptr, align 8
  %11 = alloca ptr, align 8
  %12 = alloca i32, align 4
  %13 = alloca i32, align 4
  %14 = alloca i32, align 4
  %15 = alloca i32, align 4
  %16 = alloca i16, align 2
  %17 = alloca i16, align 2
  %18 = alloca [408 x i16], align 16
  %19 = alloca ptr, align 8
  %20 = alloca i32, align 4
  %21 = alloca i32, align 4
  %22 = alloca i16, align 2
  %23 = alloca i32, align 4
  store ptr %0, ptr %9, align 8
  store ptr %1, ptr %10, align 8
  store ptr %2, ptr %11, align 8
  store i32 %3, ptr %12, align 4
  store i32 %4, ptr %13, align 4
  store i32 %5, ptr %14, align 4
  store i32 %6, ptr %15, align 4
  store i16 %7, ptr %16, align 2
  call void @llvm.lifetime.start.p0(i64 2, ptr %17) #8
  call void @llvm.lifetime.start.p0(i64 816, ptr %18) #8
  call void @llvm.lifetime.start.p0(i64 8, ptr %19) #8
  store ptr null, ptr %19, align 8
  call void @llvm.lifetime.start.p0(i64 4, ptr %20) #8
  %24 = load i32, ptr %12, align 4
  %25 = icmp eq i32 %24, 0
  br i1 %25, label %26, label %27

26:                                               ; preds = %8
  store i32 1, ptr %21, align 4
  br label %143

27:                                               ; preds = %8
  %28 = getelementptr inbounds [408 x i16], ptr %18, i64 0, i64 0
  %29 = load ptr, ptr %11, align 8
  %30 = load i32, ptr %12, align 4
  %31 = sext i32 %30 to i64
  %32 = mul i64 2, %31
  call void @llvm.memcpy.p0.p0.i64(ptr align 16 %28, ptr align 2 %29, i64 %32, i1 false)
  %33 = load i32, ptr %12, align 4
  %34 = icmp sgt i32 %33, 1
  br i1 %34, label %35, label %39

35:                                               ; preds = %27
  %36 = getelementptr inbounds [408 x i16], ptr %18, i64 0, i64 0
  %37 = load i32, ptr %12, align 4
  %38 = sext i32 %37 to i64
  call void @pg_qsort(ptr noundef %36, i64 noundef %38, i64 noundef 2, ptr noundef @cmpOffsetNumbers)
  br label %39

39:                                               ; preds = %35, %27
  %40 = load ptr, ptr %10, align 8
  %41 = getelementptr inbounds [408 x i16], ptr %18, i64 0, i64 0
  %42 = load i32, ptr %12, align 4
  call void @PageIndexMultiDelete(ptr noundef %40, ptr noundef %41, i32 noundef %42)
  %43 = load ptr, ptr %11, align 8
  %44 = getelementptr inbounds i16, ptr %43, i64 0
  %45 = load i16, ptr %44, align 2
  store i16 %45, ptr %17, align 2
  store i32 0, ptr %20, align 4
  br label %46

46:                                               ; preds = %139, %39
  %47 = load i32, ptr %20, align 4
  %48 = load i32, ptr %12, align 4
  %49 = icmp slt i32 %47, %48
  br i1 %49, label %50, label %142

50:                                               ; preds = %46
  call void @llvm.lifetime.start.p0(i64 2, ptr %22) #8
  %51 = load i32, ptr %20, align 4
  %52 = sext i32 %51 to i64
  %53 = getelementptr inbounds [408 x i16], ptr %18, i64 0, i64 %52
  %54 = load i16, ptr %53, align 2
  store i16 %54, ptr %22, align 2
  call void @llvm.lifetime.start.p0(i64 4, ptr %23) #8
  %55 = load i16, ptr %22, align 2
  %56 = zext i16 %55 to i32
  %57 = load i16, ptr %17, align 2
  %58 = zext i16 %57 to i32
  %59 = icmp eq i32 %56, %58
  br i1 %59, label %60, label %62

60:                                               ; preds = %50
  %61 = load i32, ptr %13, align 4
  br label %64

62:                                               ; preds = %50
  %63 = load i32, ptr %14, align 4
  br label %64

64:                                               ; preds = %62, %60
  %65 = phi i32 [ %61, %60 ], [ %63, %62 ]
  store i32 %65, ptr %23, align 4
  %66 = load ptr, ptr %19, align 8
  %67 = icmp eq ptr %66, null
  br i1 %67, label %74, label %68

68:                                               ; preds = %64
  %69 = load ptr, ptr %19, align 8
  %70 = load i32, ptr %69, align 4
  %71 = and i32 %70, 3
  %72 = load i32, ptr %23, align 4
  %73 = icmp ne i32 %71, %72
  br i1 %73, label %74, label %80

74:                                               ; preds = %68, %64
  %75 = load ptr, ptr %9, align 8
  %76 = load i32, ptr %23, align 4
  %77 = load i32, ptr %15, align 4
  %78 = load i16, ptr %16, align 2
  %79 = call ptr @spgFormDeadTuple(ptr noundef %75, i32 noundef %76, i32 noundef %77, i16 noundef zeroext %78)
  store ptr %79, ptr %19, align 8
  br label %80

80:                                               ; preds = %74, %68
  %81 = load ptr, ptr %10, align 8
  %82 = load ptr, ptr %19, align 8
  %83 = load ptr, ptr %19, align 8
  %84 = load i32, ptr %83, align 4
  %85 = lshr i32 %84, 2
  %86 = zext i32 %85 to i64
  %87 = load i16, ptr %22, align 2
  %88 = call zeroext i16 @PageAddItemExtended(ptr noundef %81, ptr noundef %82, i64 noundef %86, i16 noundef zeroext %87, i32 noundef 0)
  %89 = zext i16 %88 to i32
  %90 = load i16, ptr %22, align 2
  %91 = zext i16 %90 to i32
  %92 = icmp ne i32 %89, %91
  br i1 %92, label %93, label %107

93:                                               ; preds = %80
  br label %94

94:                                               ; preds = %93
  br i1 true, label %95, label %97

95:                                               ; preds = %94
  %96 = call zeroext i1 @errstart_cold(i32 noundef 21, ptr noundef null) #9
  br i1 %96, label %99, label %104

97:                                               ; preds = %94
  %98 = call zeroext i1 @errstart(i32 noundef 21, ptr noundef null)
  br i1 %98, label %99, label %104

99:                                               ; preds = %97, %95
  %100 = load ptr, ptr %19, align 8
  %101 = load i32, ptr %100, align 4
  %102 = lshr i32 %101, 2
  %103 = call i32 (ptr, ...) @errmsg_internal(ptr noundef @.str.2, i32 noundef %102)
  call void @errfinish(ptr noundef @.str.1, i32 noundef 171, ptr noundef @__func__.spgPageIndexMultiDelete)
  br label %104

104:                                              ; preds = %99, %97, %95
  unreachable

105:                                              ; No predecessors!
  br label %106

106:                                              ; preds = %105
  br label %107

107:                                              ; preds = %106, %80
  %108 = load i32, ptr %23, align 4
  %109 = icmp eq i32 %108, 1
  br i1 %109, label %110, label %122

110:                                              ; preds = %107
  %111 = load ptr, ptr %10, align 8
  call void @PageValidateSpecialPointer(ptr noundef %111)
  %112 = load ptr, ptr %10, align 8
  %113 = load ptr, ptr %10, align 8
  %114 = getelementptr inbounds nuw %struct.PageHeaderData, ptr %113, i32 0, i32 5
  %115 = load i16, ptr %114, align 4
  %116 = zext i16 %115 to i32
  %117 = sext i32 %116 to i64
  %118 = getelementptr inbounds i8, ptr %112, i64 %117
  %119 = getelementptr inbounds nuw %struct.SpGistPageOpaqueData, ptr %118, i32 0, i32 1
  %120 = load i16, ptr %119, align 2
  %121 = add i16 %120, 1
  store i16 %121, ptr %119, align 2
  br label %138

122:                                              ; preds = %107
  %123 = load i32, ptr %23, align 4
  %124 = icmp eq i32 %123, 3
  br i1 %124, label %125, label %137

125:                                              ; preds = %122
  %126 = load ptr, ptr %10, align 8
  call void @PageValidateSpecialPointer(ptr noundef %126)
  %127 = load ptr, ptr %10, align 8
  %128 = load ptr, ptr %10, align 8
  %129 = getelementptr inbounds nuw %struct.PageHeaderData, ptr %128, i32 0, i32 5
  %130 = load i16, ptr %129, align 4
  %131 = zext i16 %130 to i32
  %132 = sext i32 %131 to i64
  %133 = getelementptr inbounds i8, ptr %127, i64 %132
  %134 = getelementptr inbounds nuw %struct.SpGistPageOpaqueData, ptr %133, i32 0, i32 2
  %135 = load i16, ptr %134, align 2
  %136 = add i16 %135, 1
  store i16 %136, ptr %134, align 2
  br label %137

137:                                              ; preds = %125, %122
  br label %138

138:                                              ; preds = %137, %110
  call void @llvm.lifetime.end.p0(i64 4, ptr %23) #8
  call void @llvm.lifetime.end.p0(i64 2, ptr %22) #8
  br label %139

139:                                              ; preds = %138
  %140 = load i32, ptr %20, align 4
  %141 = add i32 %140, 1
  store i32 %141, ptr %20, align 4
  br label %46, !llvm.loop !6

142:                                              ; preds = %46
  store i32 0, ptr %21, align 4
  br label %143

143:                                              ; preds = %142, %26
  call void @llvm.lifetime.end.p0(i64 4, ptr %20) #8
  call void @llvm.lifetime.end.p0(i64 8, ptr %19) #8
  call void @llvm.lifetime.end.p0(i64 816, ptr %18) #8
  call void @llvm.lifetime.end.p0(i64 2, ptr %17) #8
  %144 = load i32, ptr %21, align 4
  switch i32 %144, label %146 [
    i32 0, label %145
    i32 1, label %145
  ]

145:                                              ; preds = %143, %143
  ret void

146:                                              ; preds = %143
  unreachable
}