; Function Attrs: nounwind uwtable
define dso_local void @spgPageIndexMultiDelete(ptr noundef %0, ptr noundef %1, ptr noundef readonly captures(none) %2, i32 noundef %3, i32 noundef %4, i32 noundef %5, i32 noundef %6, i16 noundef zeroext %7) local_unnamed_addr #0 {
  %9 = alloca [408 x i16], align 16
  call void @llvm.lifetime.start.p0(i64 816, ptr nonnull %9) #10
  %10 = icmp eq i32 %3, 0
  br i1 %10, label %.loopexit, label %11

11:                                               ; preds = %8
  %12 = sext i32 %3 to i64
  %13 = shl nsw i64 %12, 1
  call void @llvm.memcpy.p0.p0.i64(ptr nonnull align 16 %9, ptr align 2 %2, i64 %13, i1 false)
  %14 = icmp sgt i32 %3, 1
  br i1 %14, label %.thread, label %15

.thread:                                          ; preds = %11
  call void @pg_qsort(ptr noundef nonnull %9, i64 noundef %12, i64 noundef 2, ptr noundef nonnull @cmpOffsetNumbers) #10
  call void @PageIndexMultiDelete(ptr noundef %1, ptr noundef nonnull %9, i32 noundef %3) #10
  br label %.lr.ph

15:                                               ; preds = %11
  call void @PageIndexMultiDelete(ptr noundef %1, ptr noundef nonnull %9, i32 noundef %3) #10
  %16 = icmp eq i32 %3, 1
  br i1 %16, label %.lr.ph, label %.loopexit

.lr.ph:                                           ; preds = %.thread, %15
  %17 = load i16, ptr %2, align 2
  %18 = getelementptr inbounds nuw i8, ptr %1, i64 16
  %wide.trip.count = zext nneg i32 %3 to i64
  br label %19

19:                                               ; preds = %.lr.ph, %48
  %indvars.iv = phi i64 [ 0, %.lr.ph ], [ %indvars.iv.next, %48 ]
  %.043 = phi ptr [ null, %.lr.ph ], [ %.1, %48 ]
  %20 = getelementptr inbounds nuw [408 x i16], ptr %9, i64 0, i64 %indvars.iv
  %21 = load i16, ptr %20, align 2
  %22 = icmp eq i16 %21, %17
  %23 = select i1 %22, i32 %4, i32 %5
  %24 = icmp eq ptr %.043, null
  br i1 %24, label %28, label %25

25:                                               ; preds = %19
  %26 = load i32, ptr %.043, align 4
  %27 = and i32 %26, 3
  %.not = icmp eq i32 %27, %23
  br i1 %.not, label %30, label %28

28:                                               ; preds = %25, %19
  %29 = call ptr @spgFormDeadTuple(ptr noundef %0, i32 noundef %23, i32 noundef %6, i16 noundef zeroext %7) #10
  %.pre = load i32, ptr %29, align 4
  br label %30

30:                                               ; preds = %28, %25
  %31 = phi i32 [ %.pre, %28 ], [ %26, %25 ]
  %.1 = phi ptr [ %29, %28 ], [ %.043, %25 ]
  %32 = lshr i32 %31, 2
  %33 = zext nneg i32 %32 to i64
  %34 = call zeroext i16 @PageAddItemExtended(ptr noundef %1, ptr noundef nonnull %.1, i64 noundef %33, i16 noundef zeroext %21, i32 noundef 0) #10
  %.not39 = icmp eq i16 %34, %21
  br i1 %.not39, label %40, label %35

35:                                               ; preds = %30
  %36 = call zeroext i1 @errstart_cold(i32 noundef 21, ptr noundef null) #9
  call void @llvm.assume(i1 %36)
  %37 = load i32, ptr %.1, align 4
  %38 = lshr i32 %37, 2
  %39 = call i32 (ptr, ...) @errmsg_internal(ptr noundef nonnull @.str.2, i32 noundef %38) #10
  call void @errfinish(ptr noundef nonnull @.str.1, i32 noundef 171, ptr noundef nonnull @__func__.spgPageIndexMultiDelete) #10
  unreachable

40:                                               ; preds = %30
  switch i32 %23, label %48 [
    i32 1, label %.sink.split
    i32 3, label %41
  ]

41:                                               ; preds = %40
  br label %.sink.split

.sink.split:                                      ; preds = %40, %41
  %42 = phi i64 [ 4, %41 ], [ 2, %40 ]
  %43 = getelementptr inbounds nuw i8, ptr %1, i64 %42
  %44 = load i16, ptr %18, align 4
  %45 = zext i16 %44 to i64
  %gep = getelementptr inbounds nuw i8, ptr %43, i64 %45
  %46 = load i16, ptr %gep, align 2
  %47 = add i16 %46, 1
  store i16 %47, ptr %gep, align 2
  br label %48

48:                                               ; preds = %.sink.split, %40
  %indvars.iv.next = add nuw nsw i64 %indvars.iv, 1
  %exitcond.not = icmp eq i64 %indvars.iv.next, %wide.trip.count
  br i1 %exitcond.not, label %.loopexit, label %19, !llvm.loop !6

.loopexit:                                        ; preds = %48, %15, %8
  call void @llvm.lifetime.end.p0(i64 816, ptr nonnull %9) #10
  ret void
}